; Function Attrs: nounwind uwtable
define hidden ptr @createLockObject(ptr noundef %0) local_unnamed_addr #0 {
  %2 = load ptr, ptr %0, align 8
  %3 = getelementptr inbounds i8, ptr %2, i64 48
  %4 = load ptr, ptr %3, align 8
  %5 = tail call ptr %4(ptr noundef nonnull %0, ptr noundef nonnull @.str) #15
  %6 = icmp eq ptr %5, null
  br i1 %6, label %24, label %7

7:                                                ; preds = %1
  %8 = load ptr, ptr %0, align 8
  %9 = getelementptr inbounds i8, ptr %8, i64 264
  %10 = load ptr, ptr %9, align 8
  %11 = tail call ptr %10(ptr noundef nonnull %0, ptr noundef nonnull %5, ptr noundef nonnull @.str.1, ptr noundef nonnull @.str.2) #15
  %12 = icmp eq ptr %11, null
  br i1 %12, label %24, label %13

13:                                               ; preds = %7
  %14 = load ptr, ptr %0, align 8
  %15 = getelementptr inbounds i8, ptr %14, i64 224
  %16 = load ptr, ptr %15, align 8
  %17 = tail call ptr (ptr, ptr, ptr, ...) %16(ptr noundef nonnull %0, ptr noundef nonnull %5, ptr noundef nonnull %11) #15
  %18 = icmp eq ptr %17, null
  br i1 %18, label %24, label %19

19:                                               ; preds = %13
  %20 = load ptr, ptr %0, align 8
  %21 = getelementptr inbounds i8, ptr %20, i64 168
  %22 = load ptr, ptr %21, align 8
  %23 = tail call ptr %22(ptr noundef nonnull %0, ptr noundef nonnull %17) #15
  br label %24

24:                                               ; preds = %13, %7, %1, %19
  %.0 = phi ptr [ %23, %19 ], [ null, %1 ], [ null, %7 ], [ null, %13 ]
  ret ptr %.0
}